target datalayout = "e-m:e-p270:32:32-p271:32:32-p272:64:64-i64:64-i128:128-f80:128-n8:16:32:64-S128"
target triple = "x86_64-pc-linux-gnu"

%struct.lua_State = type { %struct.GCRef, i8, i8, i8, i8, %struct.MRef, %struct.GCRef, ptr, ptr, %struct.MRef, %struct.MRef, %struct.GCRef, %struct.GCRef, ptr, i32 }
%struct.MRef = type { i64 }
%struct.GCRef = type { i64 }
%union.TValue = type { i64 }
%struct.CTState = type { ptr, i32, i32, ptr, ptr, ptr, %struct.CCallback, [128 x i16] }
%struct.CCallback = type { [8 x %union.FPRCBArg], [8 x i64], ptr, ptr, ptr, i32, i32, i32 }
%union.FPRCBArg = type { double }
%struct.global_State = type { ptr, ptr, %struct.GCState, %struct.GCstr, i8, i8, i8, i8, %struct.StrInternState, i32, %struct.GCRef, %struct.SBuf, %union.TValue, %union.TValue, %struct.Node, %union.TValue, %struct.GCupval, i32, i32, ptr, ptr, ptr, i32, i32, %struct.GCRef, %struct.MRef, %struct.MRef, %struct.PRNGState, [39 x %struct.GCRef] }
%struct.GCState = type { i64, i64, i8, i8, i8, i8, i32, %struct.GCRef, %struct.MRef, %struct.GCRef, %struct.GCRef, %struct.GCRef, %struct.GCRef, i64, i64, i32, i32, %struct.MRef }
%struct.GCstr = type { %struct.GCRef, i8, i8, i8, i8, i32, i32, i32 }
%struct.StrInternState = type { ptr, i32, i32, i32, i8, i8, i8, i8, i64 }
%struct.SBuf = type { ptr, ptr, ptr, %struct.MRef }
%struct.Node = type { %union.TValue, %union.TValue, %struct.MRef }
%struct.GCupval = type { %struct.GCRef, i8, i8, i8, i8, %union.anon, %struct.MRef, i32 }
%union.anon = type { %struct.anon.1 }
%struct.anon.1 = type { %struct.GCRef, %struct.GCRef }
%struct.PRNGState = type { [4 x i64] }

; Function Attrs: alwaysinline nounwind uwtable
define internal ptr @ctype_cts(ptr noundef %0) #3 {
  %2 = alloca ptr, align 8
  %3 = alloca ptr, align 8
  store ptr %0, ptr %2, align 8, !tbaa !4
  call void @llvm.lifetime.start.p0(i64 8, ptr %3) #10
  %4 = load ptr, ptr %2, align 8, !tbaa !4
  %5 = getelementptr inbounds nuw %struct.lua_State, ptr %4, i32 0, i32 5
  %6 = getelementptr inbounds nuw %struct.MRef, ptr %5, i32 0, i32 0
  %7 = load i64, ptr %6, align 8, !tbaa !27
  %8 = inttoptr i64 %7 to ptr
  %9 = getelementptr inbounds nuw %struct.global_State, ptr %8, i32 0, i32 26
  %10 = getelementptr inbounds nuw %struct.MRef, ptr %9, i32 0, i32 0
  %11 = load i64, ptr %10, align 8, !tbaa !61
  %12 = inttoptr i64 %11 to ptr
  store ptr %12, ptr %3, align 8, !tbaa !9
  %13 = load ptr, ptr %2, align 8, !tbaa !4
  %14 = load ptr, ptr %3, align 8, !tbaa !9
  %15 = getelementptr inbounds nuw %struct.CTState, ptr %14, i32 0, i32 3
  store ptr %13, ptr %15, align 8, !tbaa !62
  %16 = load ptr, ptr %3, align 8, !tbaa !9
  call void @llvm.lifetime.end.p0(i64 8, ptr %3) #10
  ret ptr %16
}

; Function Attrs: nounwind uwtable
define internal i32 @lj_cf_ffi_meta___newindex(ptr noundef %0) #0 {
  %2 = alloca i32, align 4
  %3 = alloca ptr, align 8
  %4 = alloca ptr, align 8
  %5 = alloca i32, align 4
  %6 = alloca ptr, align 8
  %7 = alloca ptr, align 8
  %8 = alloca ptr, align 8
  %9 = alloca i32, align 4
  store ptr %0, ptr %3, align 8, !tbaa !4
  call void @llvm.lifetime.start.p0(i64 8, ptr %4) #10
  %10 = load ptr, ptr %3, align 8, !tbaa !4
  %11 = call ptr @ctype_cts(ptr noundef %10)
  store ptr %11, ptr %4, align 8, !tbaa !9
  call void @llvm.lifetime.start.p0(i64 4, ptr %5) #10
  store i32 0, ptr %5, align 4, !tbaa !34
  call void @llvm.lifetime.start.p0(i64 8, ptr %6) #10
  call void @llvm.lifetime.start.p0(i64 8, ptr %7) #10
  call void @llvm.lifetime.start.p0(i64 8, ptr %8) #10
  %12 = load ptr, ptr %3, align 8, !tbaa !4
  %13 = getelementptr inbounds nuw %struct.lua_State, ptr %12, i32 0, i32 7
  %14 = load ptr, ptr %13, align 8, !tbaa !37
  store ptr %14, ptr %8, align 8, !tbaa !30
  %15 = load ptr, ptr %8, align 8, !tbaa !30
  %16 = getelementptr inbounds %union.TValue, ptr %15, i64 2
  %17 = load ptr, ptr %3, align 8, !tbaa !4
  %18 = getelementptr inbounds nuw %struct.lua_State, ptr %17, i32 0, i32 8
  %19 = load ptr, ptr %18, align 8, !tbaa !11
  %20 = icmp ult ptr %16, %19
  br i1 %20, label %21, label %27

21:                                               ; preds = %1
  %22 = load ptr, ptr %8, align 8, !tbaa !30
  %23 = load i64, ptr %22, align 8, !tbaa !26
  %24 = ashr i64 %23, 47
  %25 = trunc i64 %24 to i32
  %26 = icmp eq i32 %25, -11
  br i1 %26, label %29, label %27

27:                                               ; preds = %21, %1
  %28 = load ptr, ptr %3, align 8, !tbaa !4
  call void @lj_err_argt(ptr noundef %28, i32 noundef 1, i32 noundef 10) #11
  unreachable

29:                                               ; preds = %21
  %30 = load ptr, ptr %4, align 8, !tbaa !9
  %31 = load ptr, ptr %8, align 8, !tbaa !30
  %32 = getelementptr inbounds nuw %struct.GCRef, ptr %31, i32 0, i32 0
  %33 = load i64, ptr %32, align 8, !tbaa !26
  %34 = and i64 %33, 140737488355327
  %35 = inttoptr i64 %34 to ptr
  %36 = load ptr, ptr %8, align 8, !tbaa !30
  %37 = getelementptr inbounds %union.TValue, ptr %36, i64 1
  %38 = call ptr @lj_cdata_index(ptr noundef %30, ptr noundef %35, ptr noundef %37, ptr noundef %7, ptr noundef %5)
  store ptr %38, ptr %6, align 8, !tbaa !38
  %39 = load i32, ptr %5, align 4, !tbaa !34
  %40 = and i32 %39, 1
  %41 = icmp ne i32 %40, 0
  br i1 %41, label %42, label %53

42:                                               ; preds = %29
  %43 = load i32, ptr %5, align 4, !tbaa !34
  %44 = and i32 %43, 33554432
  %45 = icmp ne i32 %44, 0
  br i1 %45, label %46, label %48

46:                                               ; preds = %42
  %47 = load ptr, ptr %3, align 8, !tbaa !4
  call void @lj_err_caller(ptr noundef %47, i32 noundef 3594) #11
  unreachable

48:                                               ; preds = %42
  %49 = load ptr, ptr %3, align 8, !tbaa !4
  %50 = load ptr, ptr %4, align 8, !tbaa !9
  %51 = load ptr, ptr %6, align 8, !tbaa !38
  %52 = call i32 @ffi_index_meta(ptr noundef %49, ptr noundef %50, ptr noundef %51, i32 noundef 1)
  store i32 %52, ptr %2, align 4
  store i32 1, ptr %9, align 4
  br label %60

53:                                               ; preds = %29
  %54 = load ptr, ptr %4, align 8, !tbaa !9
  %55 = load ptr, ptr %6, align 8, !tbaa !38
  %56 = load ptr, ptr %7, align 8, !tbaa !35
  %57 = load ptr, ptr %8, align 8, !tbaa !30
  %58 = getelementptr inbounds %union.TValue, ptr %57, i64 2
  %59 = load i32, ptr %5, align 4, !tbaa !34
  call void @lj_cdata_set(ptr noundef %54, ptr noundef %55, ptr noundef %56, ptr noundef %58, i32 noundef %59)
  store i32 0, ptr %2, align 4
  store i32 1, ptr %9, align 4
  br label %60

60:                                               ; preds = %53, %48
  call void @llvm.lifetime.end.p0(i64 8, ptr %8) #10
  call void @llvm.lifetime.end.p0(i64 8, ptr %7) #10
  call void @llvm.lifetime.end.p0(i64 8, ptr %6) #10
  call void @llvm.lifetime.end.p0(i64 4, ptr %5) #10
  call void @llvm.lifetime.end.p0(i64 8, ptr %4) #10
  %61 = load i32, ptr %2, align 4
  ret i32 %61
}