; Function Attrs: nounwind uwtable
define internal i32 @lj_cf_ffi_meta___newindex(ptr noundef %0) #0 {
  %2 = alloca i32, align 4
  %3 = alloca ptr, align 8
  %4 = getelementptr inbounds nuw i8, ptr %0, i64 16
  %5 = load i64, ptr %4, align 8, !tbaa !24
  %6 = inttoptr i64 %5 to ptr
  %7 = getelementptr inbounds nuw i8, ptr %6, i64 384
  %8 = load i64, ptr %7, align 8, !tbaa !41
  %9 = inttoptr i64 %8 to ptr
  %10 = getelementptr inbounds nuw i8, ptr %9, i64 16
  store ptr %0, ptr %10, align 8, !tbaa !42
  call void @llvm.lifetime.start.p0(i64 4, ptr nonnull %2) #9
  store i32 0, ptr %2, align 4, !tbaa !43
  call void @llvm.lifetime.start.p0(i64 8, ptr nonnull %3) #9
  %11 = getelementptr inbounds nuw i8, ptr %0, i64 32
  %12 = load ptr, ptr %11, align 8, !tbaa !44
  %13 = getelementptr inbounds nuw i8, ptr %12, i64 16
  %14 = getelementptr inbounds nuw i8, ptr %0, i64 40
  %15 = load ptr, ptr %14, align 8, !tbaa !4
  %16 = icmp ult ptr %13, %15
  br i1 %16, label %17, label %20

17:                                               ; preds = %1
  %18 = load i64, ptr %12, align 8, !tbaa !23
  %.mask = and i64 %18, -140737488355328
  %19 = icmp eq i64 %.mask, -1548112371908608
  br i1 %19, label %21, label %20

20:                                               ; preds = %17, %1
  tail call void @lj_err_argt(ptr noundef nonnull %0, i32 noundef 1, i32 noundef 10) #10
  unreachable

21:                                               ; preds = %17
  %22 = and i64 %18, 140737488355327
  %23 = inttoptr i64 %22 to ptr
  %24 = getelementptr inbounds nuw i8, ptr %12, i64 8
  %25 = call ptr @lj_cdata_index(ptr noundef nonnull %9, ptr noundef %23, ptr noundef nonnull %24, ptr noundef nonnull %3, ptr noundef nonnull %2) #9
  %26 = load i32, ptr %2, align 4, !tbaa !43
  %27 = and i32 %26, 1
  %.not = icmp eq i32 %27, 0
  br i1 %.not, label %33, label %28

28:                                               ; preds = %21
  %29 = and i32 %26, 33554432
  %.not17 = icmp eq i32 %29, 0
  br i1 %.not17, label %31, label %30

30:                                               ; preds = %28
  call void @lj_err_caller(ptr noundef nonnull %0, i32 noundef 3594) #10
  unreachable

31:                                               ; preds = %28
  %32 = call fastcc i32 @ffi_index_meta(ptr noundef nonnull %0, ptr noundef nonnull %9, ptr noundef %25, i32 noundef 1)
  br label %35

33:                                               ; preds = %21
  %34 = load ptr, ptr %3, align 8, !tbaa !45
  call void @lj_cdata_set(ptr noundef nonnull %9, ptr noundef %25, ptr noundef %34, ptr noundef nonnull %13, i32 noundef %26) #9
  br label %35

35:                                               ; preds = %33, %31
  %.0 = phi i32 [ %32, %31 ], [ 0, %33 ]
  call void @llvm.lifetime.end.p0(i64 8, ptr nonnull %3) #9
  call void @llvm.lifetime.end.p0(i64 4, ptr nonnull %2) #9
  ret i32 %.0
}